target datalayout = "e-m:e-p270:32:32-p271:32:32-p272:64:64-i64:64-i128:128-f80:128-n8:16:32:64-S128"
target triple = "x86_64-pc-linux-gnu"

%struct._object = type { %union.anon, ptr }
%union.anon = type { i64 }
%struct.attrgetterobject = type { %struct._object, i64, ptr, ptr }

; Function Attrs: inlinehint nounwind uwtable
define internal ptr @_Py_TYPE(ptr noundef %0) #3 {
  %2 = alloca ptr, align 8
  store ptr %0, ptr %2, align 8, !tbaa !4
  %3 = load ptr, ptr %2, align 8, !tbaa !4
  %4 = getelementptr inbounds nuw %struct._object, ptr %3, i32 0, i32 1
  %5 = load ptr, ptr %4, align 8, !tbaa !38
  ret ptr %5
}

; Function Attrs: nounwind uwtable
define internal i32 @attrgetter_traverse(ptr noundef %0, ptr noundef %1, ptr noundef %2) #0 {
  %4 = alloca i32, align 4
  %5 = alloca ptr, align 8
  %6 = alloca ptr, align 8
  %7 = alloca ptr, align 8
  %8 = alloca i32, align 4
  %9 = alloca i32, align 4
  %10 = alloca i32, align 4
  store ptr %0, ptr %5, align 8, !tbaa !9
  store ptr %1, ptr %6, align 8, !tbaa !9
  store ptr %2, ptr %7, align 8, !tbaa !9
  br label %11

11:                                               ; preds = %3
  %12 = load ptr, ptr %5, align 8, !tbaa !9
  %13 = getelementptr inbounds nuw %struct.attrgetterobject, ptr %12, i32 0, i32 2
  %14 = load ptr, ptr %13, align 8, !tbaa !49
  %15 = icmp ne ptr %14, null
  br i1 %15, label %16, label %31

16:                                               ; preds = %11
  call void @llvm.lifetime.start.p0(i64 4, ptr %8) #7
  %17 = load ptr, ptr %6, align 8, !tbaa !9
  %18 = load ptr, ptr %5, align 8, !tbaa !9
  %19 = getelementptr inbounds nuw %struct.attrgetterobject, ptr %18, i32 0, i32 2
  %20 = load ptr, ptr %19, align 8, !tbaa !49
  %21 = load ptr, ptr %7, align 8, !tbaa !9
  %22 = call i32 %17(ptr noundef %20, ptr noundef %21)
  store i32 %22, ptr %8, align 4, !tbaa !12
  %23 = load i32, ptr %8, align 4, !tbaa !12
  %24 = icmp ne i32 %23, 0
  br i1 %24, label %25, label %27

25:                                               ; preds = %16
  %26 = load i32, ptr %8, align 4, !tbaa !12
  store i32 %26, ptr %4, align 4
  store i32 1, ptr %9, align 4
  br label %28

27:                                               ; preds = %16
  store i32 0, ptr %9, align 4
  br label %28

28:                                               ; preds = %27, %25
  call void @llvm.lifetime.end.p0(i64 4, ptr %8) #7
  %29 = load i32, ptr %9, align 4
  switch i32 %29, label %55 [
    i32 0, label %30
    i32 1, label %53
  ]

30:                                               ; preds = %28
  br label %31

31:                                               ; preds = %30, %11
  br label %32

32:                                               ; preds = %31
  br label %33

33:                                               ; preds = %32
  %34 = load ptr, ptr %5, align 8, !tbaa !9
  %35 = call ptr @_Py_TYPE(ptr noundef %34)
  %36 = icmp ne ptr %35, null
  br i1 %36, label %37, label %51

37:                                               ; preds = %33
  call void @llvm.lifetime.start.p0(i64 4, ptr %10) #7
  %38 = load ptr, ptr %6, align 8, !tbaa !9
  %39 = load ptr, ptr %5, align 8, !tbaa !9
  %40 = call ptr @_Py_TYPE(ptr noundef %39)
  %41 = load ptr, ptr %7, align 8, !tbaa !9
  %42 = call i32 %38(ptr noundef %40, ptr noundef %41)
  store i32 %42, ptr %10, align 4, !tbaa !12
  %43 = load i32, ptr %10, align 4, !tbaa !12
  %44 = icmp ne i32 %43, 0
  br i1 %44, label %45, label %47

45:                                               ; preds = %37
  %46 = load i32, ptr %10, align 4, !tbaa !12
  store i32 %46, ptr %4, align 4
  store i32 1, ptr %9, align 4
  br label %48

47:                                               ; preds = %37
  store i32 0, ptr %9, align 4
  br label %48

48:                                               ; preds = %47, %45
  call void @llvm.lifetime.end.p0(i64 4, ptr %10) #7
  %49 = load i32, ptr %9, align 4
  switch i32 %49, label %55 [
    i32 0, label %50
    i32 1, label %53
  ]

50:                                               ; preds = %48
  br label %51

51:                                               ; preds = %50, %33
  br label %52

52:                                               ; preds = %51
  store i32 0, ptr %4, align 4
  br label %53

53:                                               ; preds = %52, %48, %28
  %54 = load i32, ptr %4, align 4
  ret i32 %54

55:                                               ; preds = %48, %28
  unreachable
}