; Function Attrs: nounwind uwtable
define internal i32 @attrgetter_traverse(ptr noundef readonly captures(none) %0, ptr noundef readonly captures(none) %1, ptr noundef %2) #0 {
  %4 = getelementptr inbounds nuw i8, ptr %0, i64 24
  %5 = load ptr, ptr %4, align 8, !tbaa !44
  %.not = icmp eq ptr %5, null
  br i1 %.not, label %8, label %6

6:                                                ; preds = %3
  %7 = tail call i32 %1(ptr noundef nonnull %5, ptr noundef %2) #7
  %.not17.not = icmp eq i32 %7, 0
  br i1 %.not17.not, label %8, label %13

8:                                                ; preds = %6, %3
  %9 = getelementptr i8, ptr %0, i64 8
  %.val22 = load ptr, ptr %9, align 8, !tbaa !19
  %.not18 = icmp eq ptr %.val22, null
  br i1 %.not18, label %12, label %10

10:                                               ; preds = %8
  %11 = tail call i32 %1(ptr noundef nonnull %.val22, ptr noundef %2) #7
  %.not19.not = icmp eq i32 %11, 0
  br i1 %.not19.not, label %12, label %13

12:                                               ; preds = %10, %8
  br label %13

13:                                               ; preds = %10, %6, %12
  %.1 = phi i32 [ %7, %6 ], [ %11, %10 ], [ 0, %12 ]
  ret i32 %.1
}